target datalayout = "e-m:e-p270:32:32-p271:32:32-p272:64:64-i64:64-i128:128-f80:128-n8:16:32:64-S128"
target triple = "x86_64-pc-linux-gnu"

; Function Attrs: nounwind sspstrong uwtable
define internal i64 @pm_encoding_euc_tw_char_width(ptr noundef %0, i64 noundef %1) #0 {
  %3 = alloca i64, align 8
  %4 = alloca ptr, align 8
  %5 = alloca i64, align 8
  store ptr %0, ptr %4, align 8, !tbaa !7
  store i64 %1, ptr %5, align 8, !tbaa !12
  %6 = load ptr, ptr %4, align 8, !tbaa !7
  %7 = load i8, ptr %6, align 1, !tbaa !16
  %8 = zext i8 %7 to i32
  %9 = icmp slt i32 %8, 128
  br i1 %9, label %10, label %11

10:                                               ; preds = %2
  store i64 1, ptr %3, align 8
  br label %86

11:                                               ; preds = %2
  %12 = load i64, ptr %5, align 8, !tbaa !12
  %13 = icmp sgt i64 %12, 1
  br i1 %13, label %14, label %39

14:                                               ; preds = %11
  %15 = load ptr, ptr %4, align 8, !tbaa !7
  %16 = getelementptr i8, ptr %15, i64 0
  %17 = load i8, ptr %16, align 1, !tbaa !16
  %18 = zext i8 %17 to i32
  %19 = icmp sge i32 %18, 161
  br i1 %19, label %20, label %39

20:                                               ; preds = %14
  %21 = load ptr, ptr %4, align 8, !tbaa !7
  %22 = getelementptr i8, ptr %21, i64 0
  %23 = load i8, ptr %22, align 1, !tbaa !16
  %24 = zext i8 %23 to i32
  %25 = icmp sle i32 %24, 254
  br i1 %25, label %26, label %39

26:                                               ; preds = %20
  %27 = load ptr, ptr %4, align 8, !tbaa !7
  %28 = getelementptr i8, ptr %27, i64 1
  %29 = load i8, ptr %28, align 1, !tbaa !16
  %30 = zext i8 %29 to i32
  %31 = icmp sge i32 %30, 161
  br i1 %31, label %32, label %39

32:                                               ; preds = %26
  %33 = load ptr, ptr %4, align 8, !tbaa !7
  %34 = getelementptr i8, ptr %33, i64 1
  %35 = load i8, ptr %34, align 1, !tbaa !16
  %36 = zext i8 %35 to i32
  %37 = icmp sle i32 %36, 254
  br i1 %37, label %38, label %39

38:                                               ; preds = %32
  store i64 2, ptr %3, align 8
  br label %86

39:                                               ; preds = %32, %26, %20, %14, %11
  %40 = load i64, ptr %5, align 8, !tbaa !12
  %41 = icmp sgt i64 %40, 3
  br i1 %41, label %42, label %85

42:                                               ; preds = %39
  %43 = load ptr, ptr %4, align 8, !tbaa !7
  %44 = getelementptr i8, ptr %43, i64 0
  %45 = load i8, ptr %44, align 1, !tbaa !16
  %46 = zext i8 %45 to i32
  %47 = icmp eq i32 %46, 142
  br i1 %47, label %48, label %85

48:                                               ; preds = %42
  %49 = load ptr, ptr %4, align 8, !tbaa !7
  %50 = getelementptr i8, ptr %49, i64 1
  %51 = load i8, ptr %50, align 1, !tbaa !16
  %52 = zext i8 %51 to i32
  %53 = icmp sge i32 %52, 161
  br i1 %53, label %54, label %85

54:                                               ; preds = %48
  %55 = load ptr, ptr %4, align 8, !tbaa !7
  %56 = getelementptr i8, ptr %55, i64 1
  %57 = load i8, ptr %56, align 1, !tbaa !16
  %58 = zext i8 %57 to i32
  %59 = icmp sle i32 %58, 176
  br i1 %59, label %60, label %85

60:                                               ; preds = %54
  %61 = load ptr, ptr %4, align 8, !tbaa !7
  %62 = getelementptr i8, ptr %61, i64 2
  %63 = load i8, ptr %62, align 1, !tbaa !16
  %64 = zext i8 %63 to i32
  %65 = icmp sge i32 %64, 161
  br i1 %65, label %66, label %85

66:                                               ; preds = %60
  %67 = load ptr, ptr %4, align 8, !tbaa !7
  %68 = getelementptr i8, ptr %67, i64 2
  %69 = load i8, ptr %68, align 1, !tbaa !16
  %70 = zext i8 %69 to i32
  %71 = icmp sle i32 %70, 254
  br i1 %71, label %72, label %85

72:                                               ; preds = %66
  %73 = load ptr, ptr %4, align 8, !tbaa !7
  %74 = getelementptr i8, ptr %73, i64 3
  %75 = load i8, ptr %74, align 1, !tbaa !16
  %76 = zext i8 %75 to i32
  %77 = icmp sge i32 %76, 161
  br i1 %77, label %78, label %85

78:                                               ; preds = %72
  %79 = load ptr, ptr %4, align 8, !tbaa !7
  %80 = getelementptr i8, ptr %79, i64 3
  %81 = load i8, ptr %80, align 1, !tbaa !16
  %82 = zext i8 %81 to i32
  %83 = icmp sle i32 %82, 254
  br i1 %83, label %84, label %85

84:                                               ; preds = %78
  store i64 4, ptr %3, align 8
  br label %86

85:                                               ; preds = %78, %72, %66, %60, %54, %48, %42, %39
  store i64 0, ptr %3, align 8
  br label %86

86:                                               ; preds = %85, %84, %38, %10
  %87 = load i64, ptr %3, align 8
  ret i64 %87
}