; Function Attrs: mustprogress nofree norecurse nosync nounwind sspstrong willreturn memory(argmem: read) uwtable
define internal range(i64 0, 5) i64 @pm_encoding_euc_tw_char_width(ptr noundef readonly captures(none) %0, i64 noundef %1) #2 {
  %3 = load i8, ptr %0, align 1, !tbaa !7
  %4 = icmp sgt i8 %3, -1
  br i1 %4, label %28, label %5

5:                                                ; preds = %2
  %6 = icmp slt i64 %1, 2
  %7 = add nsw i8 %3, 1
  %8 = icmp ult i8 %7, -94
  %or.cond22 = or i1 %6, %8
  br i1 %or.cond22, label %13, label %9

9:                                                ; preds = %5
  %10 = getelementptr i8, ptr %0, i64 1
  %11 = load i8, ptr %10, align 1, !tbaa !7
  %12 = add i8 %11, 1
  %or.cond23 = icmp ult i8 %12, -94
  br i1 %or.cond23, label %.thread, label %28

13:                                               ; preds = %5
  %14 = icmp sgt i64 %1, 3
  %15 = icmp eq i8 %3, -114
  %or.cond27 = and i1 %14, %15
  br i1 %or.cond27, label %16, label %.thread

16:                                               ; preds = %13
  %17 = getelementptr i8, ptr %0, i64 1
  %18 = load i8, ptr %17, align 1, !tbaa !7
  %19 = add i8 %18, 95
  %or.cond24 = icmp ult i8 %19, 16
  br i1 %or.cond24, label %20, label %.thread

20:                                               ; preds = %16
  %21 = getelementptr i8, ptr %0, i64 2
  %22 = load i8, ptr %21, align 1, !tbaa !7
  %23 = add i8 %22, 1
  %or.cond25 = icmp ult i8 %23, -94
  br i1 %or.cond25, label %.thread, label %24

24:                                               ; preds = %20
  %25 = getelementptr i8, ptr %0, i64 3
  %26 = load i8, ptr %25, align 1, !tbaa !7
  %27 = add i8 %26, 1
  %or.cond26 = icmp ult i8 %27, -94
  br i1 %or.cond26, label %.thread, label %28

.thread:                                          ; preds = %9, %24, %20, %16, %13
  br label %28

28:                                               ; preds = %24, %9, %2, %.thread
  %.0 = phi i64 [ 0, %.thread ], [ 1, %2 ], [ 2, %9 ], [ 4, %24 ]
  ret i64 %.0
}